target datalayout = "e-m:e-p270:32:32-p271:32:32-p272:64:64-i64:64-i128:128-f80:128-n8:16:32:64-S128"
target triple = "x86_64-unknown-linux-gnu"

%"class.datalog::entry_storage" = type { i32, i32, i64, %class.svector, %class.hashtable, i64 }
%class.svector = type { %class.vector }
%class.vector = type { ptr }
%class.hashtable = type { %class.core_hashtable.base, [4 x i8] }
%class.core_hashtable.base = type <{ %"class.datalog::entry_storage::offset_hash_proc.base", [4 x i8], %"class.datalog::entry_storage::offset_eq_proc.base", [4 x i8], ptr, i32, i32, i32 }>
%"class.datalog::entry_storage::offset_hash_proc.base" = type <{ ptr, i32 }>
%"class.datalog::entry_storage::offset_eq_proc.base" = type <{ ptr, i32 }>
%"class.datalog::sparse_table::column_info" = type { i32, i32, i64, i64, i32, i32 }
%"class.datalog::sparse_table::column_layout" = type <{ %class.svector.0, i32, i32, i32, [4 x i8] }>
%class.svector.0 = type { %class.vector.1 }
%class.vector.1 = type { ptr }
%"class.datalog::table_signature" = type <{ %"class.datalog::tr_infrastructure<datalog::table_traits>::signature_base", i32, [4 x i8] }>
%"class.datalog::tr_infrastructure<datalog::table_traits>::signature_base" = type { %class.svector.2 }
%class.svector.2 = type { %class.vector.3 }
%class.vector.3 = type { ptr }
%"class.datalog::sparse_table" = type { %"class.datalog::table_base.base", [4 x i8], %"class.datalog::sparse_table::column_layout", i32, %"class.datalog::entry_storage", %class.map }
%"class.datalog::table_base.base" = type { %"class.datalog::tr_infrastructure<datalog::table_traits>::base_ancestor.base" }
%"class.datalog::tr_infrastructure<datalog::table_traits>::base_ancestor.base" = type <{ ptr, ptr, %"class.datalog::table_signature", i32 }>
%class.map = type { %class.table2map }
%class.table2map = type { %class.core_hashtable.4 }
%class.core_hashtable.4 = type <{ ptr, i32, i32, i32, [4 x i8] }>

; Function Attrs: mustprogress nounwind uwtable
define linkonce_odr hidden void @_ZNK7datalog12sparse_table11column_info3setEPcm(ptr noundef nonnull align 8 dereferenceable(32) %this, ptr noundef %rec, i64 noundef %val) #5 comdat align 2 {
entry:
  %this.addr = alloca ptr, align 8
  %rec.addr = alloca ptr, align 8
  %val.addr = alloca i64, align 8
  %cell = alloca i64, align 8
  store ptr %this, ptr %this.addr, align 8
  store ptr %rec, ptr %rec.addr, align 8
  store i64 %val, ptr %val.addr, align 8
  %this1 = load ptr, ptr %this.addr, align 8
  %0 = load ptr, ptr %rec.addr, align 8
  %m_big_offset = getelementptr inbounds %"class.datalog::sparse_table::column_info", ptr %this1, i32 0, i32 0
  %1 = load i32, ptr %m_big_offset, align 8
  %idx.ext = zext i32 %1 to i64
  %add.ptr = getelementptr inbounds i8, ptr %0, i64 %idx.ext
  call void @llvm.memcpy.p0.p0.i64(ptr align 8 %cell, ptr align 1 %add.ptr, i64 8, i1 false)
  %m_write_mask = getelementptr inbounds %"class.datalog::sparse_table::column_info", ptr %this1, i32 0, i32 3
  %2 = load i64, ptr %m_write_mask, align 8
  %3 = load i64, ptr %cell, align 8
  %and = and i64 %3, %2
  store i64 %and, ptr %cell, align 8
  %4 = load i64, ptr %val.addr, align 8
  %m_small_offset = getelementptr inbounds %"class.datalog::sparse_table::column_info", ptr %this1, i32 0, i32 1
  %5 = load i32, ptr %m_small_offset, align 4
  %sh_prom = zext i32 %5 to i64
  %shl = shl i64 %4, %sh_prom
  %6 = load i64, ptr %cell, align 8
  %or = or i64 %6, %shl
  store i64 %or, ptr %cell, align 8
  %7 = load ptr, ptr %rec.addr, align 8
  %m_big_offset2 = getelementptr inbounds %"class.datalog::sparse_table::column_info", ptr %this1, i32 0, i32 0
  %8 = load i32, ptr %m_big_offset2, align 8
  %idx.ext3 = zext i32 %8 to i64
  %add.ptr4 = getelementptr inbounds i8, ptr %7, i64 %idx.ext3
  call void @llvm.memcpy.p0.p0.i64(ptr align 1 %add.ptr4, ptr align 8 %cell, i64 8, i1 false)
  ret void
}

; Function Attrs: mustprogress nounwind uwtable
define linkonce_odr hidden noundef nonnull align 8 dereferenceable(32) ptr @_ZNK6vectorIN7datalog12sparse_table11column_infoELb0EjEixEj(ptr noundef nonnull align 8 dereferenceable(8) %this, i32 noundef %idx) #5 comdat align 2 {
entry:
  %this.addr = alloca ptr, align 8
  %idx.addr = alloca i32, align 4
  store ptr %this, ptr %this.addr, align 8
  store i32 %idx, ptr %idx.addr, align 4
  %this1 = load ptr, ptr %this.addr, align 8
  %m_data = getelementptr inbounds %class.vector.1, ptr %this1, i32 0, i32 0
  %0 = load ptr, ptr %m_data, align 8
  %1 = load i32, ptr %idx.addr, align 4
  %idxprom = zext i32 %1 to i64
  %arrayidx = getelementptr inbounds %"class.datalog::sparse_table::column_info", ptr %0, i64 %idxprom
  ret ptr %arrayidx
}

; Function Attrs: mustprogress nounwind uwtable
define linkonce_odr hidden noundef nonnull align 1 dereferenceable(1) ptr @_ZN6vectorIcLb0EmE3getEm(ptr noundef nonnull align 8 dereferenceable(8) %this, i64 noundef %idx) #5 comdat align 2 {
entry:
  %this.addr = alloca ptr, align 8
  %idx.addr = alloca i64, align 8
  store ptr %this, ptr %this.addr, align 8
  store i64 %idx, ptr %idx.addr, align 8
  %this1 = load ptr, ptr %this.addr, align 8
  %m_data = getelementptr inbounds %class.vector, ptr %this1, i32 0, i32 0
  %0 = load ptr, ptr %m_data, align 8
  %1 = load i64, ptr %idx.addr, align 8
  %arrayidx = getelementptr inbounds i8, ptr %0, i64 %1
  ret ptr %arrayidx
}

; Function Attrs: mustprogress nounwind uwtable
define linkonce_odr hidden noundef i64 @_ZNK7datalog13entry_storage7reserveEv(ptr noundef nonnull align 8 dereferenceable(88) %this) #5 comdat align 2 {
entry:
  %this.addr = alloca ptr, align 8
  store ptr %this, ptr %this.addr, align 8
  %this1 = load ptr, ptr %this.addr, align 8
  %m_reserve = getelementptr inbounds %"class.datalog::entry_storage", ptr %this1, i32 0, i32 5
  %0 = load i64, ptr %m_reserve, align 8
  ret i64 %0
}

; Function Attrs: mustprogress nounwind uwtable
define linkonce_odr hidden noundef zeroext i1 @_ZNK7datalog13entry_storage11has_reserveEv(ptr noundef nonnull align 8 dereferenceable(88) %this) #5 comdat align 2 {
entry:
  %this.addr = alloca ptr, align 8
  store ptr %this, ptr %this.addr, align 8
  %this1 = load ptr, ptr %this.addr, align 8
  %m_reserve = getelementptr inbounds %"class.datalog::entry_storage", ptr %this1, i32 0, i32 5
  %0 = load i64, ptr %m_reserve, align 8
  %cmp = icmp ne i64 %0, 4294967295
  ret i1 %cmp
}

; Function Attrs: mustprogress uwtable
define linkonce_odr hidden void @_ZNK7datalog12sparse_table13column_layout3setEPcjm(ptr noundef nonnull align 8 dereferenceable(20) %this, ptr noundef %rec, i32 noundef %col, i64 noundef %val) #4 comdat align 2 {
entry:
  %this.addr = alloca ptr, align 8
  %rec.addr = alloca ptr, align 8
  %col.addr = alloca i32, align 4
  %val.addr = alloca i64, align 8
  store ptr %this, ptr %this.addr, align 8
  store ptr %rec, ptr %rec.addr, align 8
  store i32 %col, ptr %col.addr, align 4
  store i64 %val, ptr %val.addr, align 8
  %this1 = load ptr, ptr %this.addr, align 8
  %0 = load i32, ptr %col.addr, align 4
  %call = call noundef nonnull align 8 dereferenceable(32) ptr @_ZNK6vectorIN7datalog12sparse_table11column_infoELb0EjEixEj(ptr noundef nonnull align 8 dereferenceable(8) %this1, i32 noundef %0)
  %1 = load ptr, ptr %rec.addr, align 8
  %2 = load i64, ptr %val.addr, align 8
  call void @_ZNK7datalog12sparse_table11column_info3setEPcm(ptr noundef nonnull align 8 dereferenceable(32) %call, ptr noundef %1, i64 noundef %2)
  ret void
}

; Function Attrs: mustprogress nounwind uwtable
define linkonce_odr hidden noundef i32 @_ZNK6vectorIN7datalog12sparse_table11column_infoELb0EjE4sizeEv(ptr noundef nonnull align 8 dereferenceable(8) %this) #5 comdat align 2 {
entry:
  %retval = alloca i32, align 4
  %this.addr = alloca ptr, align 8
  store ptr %this, ptr %this.addr, align 8
  %this1 = load ptr, ptr %this.addr, align 8
  %m_data = getelementptr inbounds %class.vector.1, ptr %this1, i32 0, i32 0
  %0 = load ptr, ptr %m_data, align 8
  %cmp = icmp eq ptr %0, null
  br i1 %cmp, label %if.then, label %if.end

if.then:                                          ; preds = %entry
  store i32 0, ptr %retval, align 4
  br label %return

if.end:                                           ; preds = %entry
  %m_data2 = getelementptr inbounds %class.vector.1, ptr %this1, i32 0, i32 0
  %1 = load ptr, ptr %m_data2, align 8
  %arrayidx = getelementptr inbounds i32, ptr %1, i64 -1
  %2 = load i32, ptr %arrayidx, align 4
  store i32 %2, ptr %retval, align 4
  br label %return

return:                                           ; preds = %if.end, %if.then
  %3 = load i32, ptr %retval, align 4
  ret i32 %3
}

; Function Attrs: mustprogress uwtable
define linkonce_odr hidden noundef ptr @_ZN7datalog13entry_storage15get_reserve_ptrEv(ptr noundef nonnull align 8 dereferenceable(88) %this) #4 comdat align 2 {
entry:
  %this.addr = alloca ptr, align 8
  store ptr %this, ptr %this.addr, align 8
  %this1 = load ptr, ptr %this.addr, align 8
  %m_data = getelementptr inbounds %"class.datalog::entry_storage", ptr %this1, i32 0, i32 3
  %call = call noundef i64 @_ZNK7datalog13entry_storage7reserveEv(ptr noundef nonnull align 8 dereferenceable(88) %this1)
  %call2 = call noundef nonnull align 1 dereferenceable(1) ptr @_ZN6vectorIcLb0EmE3getEm(ptr noundef nonnull align 8 dereferenceable(8) %m_data, i64 noundef %call)
  ret ptr %call2
}

; Function Attrs: mustprogress uwtable
define linkonce_odr hidden void @_ZN7datalog13entry_storage14ensure_reserveEv(ptr noundef nonnull align 8 dereferenceable(88) %this) #4 comdat align 2 {
entry:
  %this.addr = alloca ptr, align 8
  store ptr %this, ptr %this.addr, align 8
  %this1 = load ptr, ptr %this.addr, align 8
  %call = call noundef zeroext i1 @_ZNK7datalog13entry_storage11has_reserveEv(ptr noundef nonnull align 8 dereferenceable(88) %this1)
  br i1 %call, label %if.then, label %if.end

if.then:                                          ; preds = %entry
  br label %return

if.end:                                           ; preds = %entry
  %m_data_size = getelementptr inbounds %"class.datalog::entry_storage", ptr %this1, i32 0, i32 2
  %0 = load i64, ptr %m_data_size, align 8
  %m_reserve = getelementptr inbounds %"class.datalog::entry_storage", ptr %this1, i32 0, i32 5
  store i64 %0, ptr %m_reserve, align 8
  %m_data_size2 = getelementptr inbounds %"class.datalog::entry_storage", ptr %this1, i32 0, i32 2
  %1 = load i64, ptr %m_data_size2, align 8
  %m_entry_size = getelementptr inbounds %"class.datalog::entry_storage", ptr %this1, i32 0, i32 0
  %2 = load i32, ptr %m_entry_size, align 8
  %conv = zext i32 %2 to i64
  %add = add i64 %1, %conv
  call void @_ZN7datalog13entry_storage11resize_dataEm(ptr noundef nonnull align 8 dereferenceable(88) %this1, i64 noundef %add)
  br label %return

return:                                           ; preds = %if.end, %if.then
  ret void
}

; Function Attrs: mustprogress uwtable
define hidden void @_ZN7datalog12sparse_table18write_into_reserveEPKm(ptr noundef nonnull align 8 dereferenceable(184) %this, ptr noundef %f) #4 align 2 {
entry:
  %this.addr = alloca ptr, align 8
  %f.addr = alloca ptr, align 8
  %reserve = alloca ptr, align 8
  %col_cnt = alloca i32, align 4
  %i = alloca i32, align 4
  store ptr %this, ptr %this.addr, align 8
  store ptr %f, ptr %f.addr, align 8
  %this1 = load ptr, ptr %this.addr, align 8
  %m_data = getelementptr inbounds %"class.datalog::sparse_table", ptr %this1, i32 0, i32 4
  call void @_ZN7datalog13entry_storage14ensure_reserveEv(ptr noundef nonnull align 8 dereferenceable(88) %m_data)
  %m_data2 = getelementptr inbounds %"class.datalog::sparse_table", ptr %this1, i32 0, i32 4
  %call = call noundef ptr @_ZN7datalog13entry_storage15get_reserve_ptrEv(ptr noundef nonnull align 8 dereferenceable(88) %m_data2)
  store ptr %call, ptr %reserve, align 8
  %m_column_layout = getelementptr inbounds %"class.datalog::sparse_table", ptr %this1, i32 0, i32 2
  %call3 = call noundef i32 @_ZNK6vectorIN7datalog12sparse_table11column_infoELb0EjE4sizeEv(ptr noundef nonnull align 8 dereferenceable(8) %m_column_layout)
  store i32 %call3, ptr %col_cnt, align 4
  store i32 0, ptr %i, align 4
  br label %for.cond

for.cond:                                         ; preds = %for.inc, %entry
  %0 = load i32, ptr %i, align 4
  %1 = load i32, ptr %col_cnt, align 4
  %cmp = icmp ult i32 %0, %1
  br i1 %cmp, label %for.body, label %for.end

for.body:                                         ; preds = %for.cond
  %m_column_layout4 = getelementptr inbounds %"class.datalog::sparse_table", ptr %this1, i32 0, i32 2
  %2 = load ptr, ptr %reserve, align 8
  %3 = load i32, ptr %i, align 4
  %4 = load ptr, ptr %f.addr, align 8
  %5 = load i32, ptr %i, align 4
  %idxprom = zext i32 %5 to i64
  %arrayidx = getelementptr inbounds i64, ptr %4, i64 %idxprom
  %6 = load i64, ptr %arrayidx, align 8
  call void @_ZNK7datalog12sparse_table13column_layout3setEPcjm(ptr noundef nonnull align 8 dereferenceable(20) %m_column_layout4, ptr noundef %2, i32 noundef %3, i64 noundef %6)
  br label %for.inc

for.inc:                                          ; preds = %for.body
  %7 = load i32, ptr %i, align 4
  %inc = add i32 %7, 1
  store i32 %inc, ptr %i, align 4
  br label %for.cond, !llvm.loop !13

for.end:                                          ; preds = %for.cond
  ret void
}