; Function Attrs: mustprogress uwtable
define hidden void @_ZN7datalog12sparse_table18write_into_reserveEPKm(ptr noundef nonnull align 8 dereferenceable(184) %this, ptr nocapture noundef readonly %f) local_unnamed_addr #3 align 2 {
entry:
  %m_reserve.i.i = getelementptr inbounds i8, ptr %this, i64 152
  %0 = load i64, ptr %m_reserve.i.i, align 8
  %cmp.i.not.i = icmp eq i64 %0, 4294967295
  br i1 %cmp.i.not.i, label %if.end.i, label %_ZN7datalog13entry_storage14ensure_reserveEv.exit

if.end.i:                                         ; preds = %entry
  %m_data = getelementptr inbounds i8, ptr %this, i64 72
  %m_data_size.i = getelementptr inbounds i8, ptr %this, i64 80
  %1 = load i64, ptr %m_data_size.i, align 8
  store i64 %1, ptr %m_reserve.i.i, align 8
  %2 = load i32, ptr %m_data, align 8
  %conv.i = zext i32 %2 to i64
  %add.i = add i64 %1, %conv.i
  tail call void @_ZN7datalog13entry_storage11resize_dataEm(ptr noundef nonnull align 8 dereferenceable(88) %m_data, i64 noundef %add.i)
  %.pre = load i64, ptr %m_reserve.i.i, align 8
  br label %_ZN7datalog13entry_storage14ensure_reserveEv.exit

_ZN7datalog13entry_storage14ensure_reserveEv.exit: ; preds = %entry, %if.end.i
  %3 = phi i64 [ %0, %entry ], [ %.pre, %if.end.i ]
  %m_data.i = getelementptr inbounds i8, ptr %this, i64 88
  %4 = load ptr, ptr %m_data.i, align 8
  %arrayidx.i.i = getelementptr inbounds i8, ptr %4, i64 %3
  %m_column_layout = getelementptr inbounds i8, ptr %this, i64 40
  %5 = load ptr, ptr %m_column_layout, align 8
  %cmp.i = icmp eq ptr %5, null
  br i1 %cmp.i, label %for.end, label %_ZNK6vectorIN7datalog12sparse_table11column_infoELb0EjE4sizeEv.exit

_ZNK6vectorIN7datalog12sparse_table11column_infoELb0EjE4sizeEv.exit: ; preds = %_ZN7datalog13entry_storage14ensure_reserveEv.exit
  %arrayidx.i = getelementptr inbounds i8, ptr %5, i64 -4
  %6 = load i32, ptr %arrayidx.i, align 4
  %cmp7.not = icmp eq i32 %6, 0
  br i1 %cmp7.not, label %for.end, label %for.body.preheader

for.body.preheader:                               ; preds = %_ZNK6vectorIN7datalog12sparse_table11column_infoELb0EjE4sizeEv.exit
  %wide.trip.count = zext i32 %6 to i64
  br label %for.body

for.body:                                         ; preds = %for.body.preheader, %for.body
  %indvars.iv = phi i64 [ 0, %for.body.preheader ], [ %indvars.iv.next, %for.body ]
  %arrayidx = getelementptr inbounds i64, ptr %f, i64 %indvars.iv
  %7 = load i64, ptr %arrayidx, align 8
  %8 = load ptr, ptr %m_column_layout, align 8
  %arrayidx.i.i6 = getelementptr inbounds %"class.datalog::sparse_table::column_info", ptr %8, i64 %indvars.iv
  %9 = load i32, ptr %arrayidx.i.i6, align 8
  %idx.ext.i.i = zext i32 %9 to i64
  %add.ptr.i.i = getelementptr inbounds i8, ptr %arrayidx.i.i, i64 %idx.ext.i.i
  %cell.0.copyload.i.i = load i64, ptr %add.ptr.i.i, align 1
  %m_write_mask.i.i = getelementptr inbounds i8, ptr %arrayidx.i.i6, i64 16
  %10 = load i64, ptr %m_write_mask.i.i, align 8
  %and.i.i = and i64 %10, %cell.0.copyload.i.i
  %m_small_offset.i.i = getelementptr inbounds i8, ptr %arrayidx.i.i6, i64 4
  %11 = load i32, ptr %m_small_offset.i.i, align 4
  %sh_prom.i.i = zext nneg i32 %11 to i64
  %shl.i.i = shl i64 %7, %sh_prom.i.i
  %or.i.i = or i64 %shl.i.i, %and.i.i
  store i64 %or.i.i, ptr %add.ptr.i.i, align 1
  %indvars.iv.next = add nuw nsw i64 %indvars.iv, 1
  %exitcond.not = icmp eq i64 %indvars.iv.next, %wide.trip.count
  br i1 %exitcond.not, label %for.end, label %for.body, !llvm.loop !28

for.end:                                          ; preds = %for.body, %_ZN7datalog13entry_storage14ensure_reserveEv.exit, %_ZNK6vectorIN7datalog12sparse_table11column_infoELb0EjE4sizeEv.exit
  ret void
}